; Function Attrs: inlinehint nounwind uwtable
define internal fastcc void @put_bits(ptr noundef nonnull captures(none) %0, i32 noundef range(i32 -2147483648, 17) %1, i32 noundef %2) unnamed_addr #4 {
  %4 = load i32, ptr %0, align 8, !tbaa !69
  %5 = getelementptr inbounds nuw i8, ptr %0, i64 4
  %6 = load i32, ptr %5, align 4, !tbaa !68
  %7 = icmp slt i32 %1, %6
  br i1 %7, label %8, label %12

8:                                                ; preds = %3
  %9 = shl i32 %4, %1
  %10 = or i32 %9, %2
  %11 = sub nsw i32 %6, %1
  br label %put_bits_no_assert.exit

12:                                               ; preds = %3
  %13 = getelementptr inbounds nuw i8, ptr %0, i64 24
  %14 = load ptr, ptr %13, align 8, !tbaa !66
  %15 = getelementptr inbounds nuw i8, ptr %0, i64 16
  %16 = load ptr, ptr %15, align 8, !tbaa !67
  %17 = ptrtoint ptr %14 to i64
  %18 = ptrtoint ptr %16 to i64
  %19 = sub i64 %17, %18
  %20 = icmp ugt i64 %19, 3
  br i1 %20, label %21, label %29

21:                                               ; preds = %12
  %22 = shl i32 %4, %6
  %23 = sub nsw i32 %1, %6
  %24 = lshr i32 %2, %23
  %25 = or i32 %24, %22
  %26 = tail call i32 @llvm.bswap.i32(i32 %25)
  store i32 %26, ptr %16, align 1, !tbaa !49
  %27 = load ptr, ptr %15, align 8, !tbaa !67
  %28 = getelementptr inbounds nuw i8, ptr %27, i64 4
  store ptr %28, ptr %15, align 8, !tbaa !67
  br label %30

29:                                               ; preds = %12
  tail call void (ptr, i32, ptr, ...) @av_log(ptr noundef null, i32 noundef 16, ptr noundef nonnull @.str.19) #7
  br label %30

30:                                               ; preds = %29, %21
  %reass.sub = sub i32 %6, %1
  %31 = add i32 %reass.sub, 32
  br label %put_bits_no_assert.exit

put_bits_no_assert.exit:                          ; preds = %8, %30
  %.026.i = phi i32 [ %10, %8 ], [ %2, %30 ]
  %.0.i = phi i32 [ %11, %8 ], [ %31, %30 ]
  store i32 %.026.i, ptr %0, align 8, !tbaa !69
  store i32 %.0.i, ptr %5, align 4, !tbaa !68
  ret void
}